ccopy_reg
_reconstructor
p0
(cgoogle.oauth2.credentials
Credentials
p1
c__builtin__
object
p2
Ntp3
Rp4
(dp5
S'_quota_project_id'
p6
NsS'_token_uri'
p7
Vhttps://oauth2.googleapis.com/token
p8
sS'_client_secret'
p9
VQWhvgHPTa_lZYlUil3BT6VnZ
p10
sS'_id_token'
p11
NsS'token'
p12
Vya29.a0Ae4lvC39GlPNgGMgJffqSW9Wg91OY6lfzlfMPTje-6AvyqZjGd41IK4DCqFaNwbN6_38vsKqCyEHKUOL-7Zb7rcn3pgeJcfE1DG1WQu1JBbMrGjx8nV0sUtCHj6J64hGdIgEyScEx9LVsrCYu4gsxdTB9iZ2WRqLtC3w
p13
sS'_refresh_token'
p14
V1//06zUg3bOqZ0Z1CgYIARAAGAYSNgF-L9Ir_F6Fnol1iCrNt2FvDvwiifdeuIh1qbbNREPFmBgeWes-E-BMaCMZ0isdTs-S3PHZtA
p15
sS'_scopes'
p16
(lp17
S'https://www.googleapis.com/auth/gmail.readonly'
p18
asS'_client_id'
p19
V678525514495-jmh7mea8kppu8sngiiborvo76vp5nr2a.apps.googleusercontent.com
p20
sS'expiry'
p21
cdatetime
datetime
p22
(S'\x07\xe4\x05\x03\x01\x19\x0f\x06\xf2\x8c'
p23
tp24
Rp25
sb.