ccopy_reg
_reconstructor
p0
(cgoogle.oauth2.credentials
Credentials
p1
c__builtin__
object
p2
Ntp3
Rp4
(dp5
S'_quota_project_id'
p6
NsS'_token_uri'
p7
Vhttps://oauth2.googleapis.com/token
p8
sS'_client_secret'
p9
V8kN4WUEmwywNIVZ0Xa4Kqupt
p10
sS'_id_token'
p11
NsS'token'
p12
Vya29.a0Ae4lvC0t4-9JtNWyF3TNinnra1Oj0mhNin9p-r93zaB2sdoY70yyirz3HPY-sYJ7ju4G5ny-HIy_9QrN6S6-RbC-ARx2szNuCyZwPl2Drdv8SKXhm1EDk1_gUHJ6uRv-0XZMCoX1rGe8zDTC00bAwzDdOGffEpX7RGc
p13
sS'_refresh_token'
p14
V1//06jC-5lFyCOzKCgYIARAAGAYSNgF-L9IrzB9WJhbZutMaPtdD9Ng-DlT8BwlqrgfGbgiBHD2iNEAu5hNAUywIX9Kn7j-KAfeemA
p15
sS'_scopes'
p16
(lp17
S'https://www.googleapis.com/auth/gmail.modify'
p18
asS'_client_id'
p19
V1042785625022-ja4t5ievfe3h96j584ldpijf90dtedud.apps.googleusercontent.com
p20
sS'expiry'
p21
cdatetime
datetime
p22
(S'\x07\xe4\x05\x06\x16-\x03\x04\x0b\x00'
p23
tp24
Rp25
sb.